target datalayout = "e-m:e-p270:32:32-p271:32:32-p272:64:64-i64:64-i128:128-f80:128-n8:16:32:64-S128"
target triple = "x86_64-pc-linux-gnu"

%"class.LIEF::MachO::RelocationFixup" = type { %"class.LIEF::MachO::Relocation", i32, i64, i32, i32, %union.anon.38 }
%"class.LIEF::MachO::Relocation" = type { %"class.LIEF::Relocation.base", ptr, i8, i32, ptr, ptr }
%"class.LIEF::Relocation.base" = type <{ %"class.LIEF::Object", i64, i8 }>
%"class.LIEF::Object" = type { ptr }
%union.anon.38 = type { ptr }

; Function Attrs: mustprogress nounwind uwtable
define void @_ZN4LIEF5MachO15RelocationFixup4nextEj(ptr noundef nonnull align 8 dereferenceable(88) %0, i32 noundef %1) #1 align 2 {
  %3 = alloca ptr, align 8
  %4 = alloca i32, align 4
  store ptr %0, ptr %3, align 8, !tbaa !15
  store i32 %1, ptr %4, align 4, !tbaa !61
  %5 = load ptr, ptr %3, align 8
  %6 = getelementptr inbounds nuw %"class.LIEF::MachO::RelocationFixup", ptr %5, i32 0, i32 4
  %7 = load i32, ptr %6, align 4, !tbaa !19
  switch i32 %7, label %48 [
    i32 1, label %8
    i32 2, label %18
    i32 3, label %28
    i32 4, label %38
    i32 0, label %47
  ]

8:                                                ; preds = %2
  %9 = load i32, ptr %4, align 4, !tbaa !61
  %10 = zext i32 %9 to i64
  %11 = getelementptr inbounds nuw %"class.LIEF::MachO::RelocationFixup", ptr %5, i32 0, i32 5
  %12 = load ptr, ptr %11, align 8, !tbaa !10
  %13 = load i64, ptr %12, align 8
  %14 = and i64 %10, 2047
  %15 = shl i64 %14, 51
  %16 = and i64 %13, -4609434218613702657
  %17 = or i64 %16, %15
  store i64 %17, ptr %12, align 8
  br label %48

18:                                               ; preds = %2
  %19 = load i32, ptr %4, align 4, !tbaa !61
  %20 = zext i32 %19 to i64
  %21 = getelementptr inbounds nuw %"class.LIEF::MachO::RelocationFixup", ptr %5, i32 0, i32 5
  %22 = load ptr, ptr %21, align 8, !tbaa !10
  %23 = load i64, ptr %22, align 8
  %24 = and i64 %20, 2047
  %25 = shl i64 %24, 51
  %26 = and i64 %23, -4609434218613702657
  %27 = or i64 %26, %25
  store i64 %27, ptr %22, align 8
  br label %48

28:                                               ; preds = %2
  %29 = load i32, ptr %4, align 4, !tbaa !61
  %30 = zext i32 %29 to i64
  %31 = getelementptr inbounds nuw %"class.LIEF::MachO::RelocationFixup", ptr %5, i32 0, i32 5
  %32 = load ptr, ptr %31, align 8, !tbaa !10
  %33 = load i64, ptr %32, align 8
  %34 = and i64 %30, 4095
  %35 = shl i64 %34, 51
  %36 = and i64 %33, -9221120237041090561
  %37 = or i64 %36, %35
  store i64 %37, ptr %32, align 8
  br label %48

38:                                               ; preds = %2
  %39 = load i32, ptr %4, align 4, !tbaa !61
  %40 = getelementptr inbounds nuw %"class.LIEF::MachO::RelocationFixup", ptr %5, i32 0, i32 5
  %41 = load ptr, ptr %40, align 8, !tbaa !10
  %42 = load i32, ptr %41, align 4
  %43 = and i32 %39, 31
  %44 = shl i32 %43, 26
  %45 = and i32 %42, -2080374785
  %46 = or i32 %45, %44
  store i32 %46, ptr %41, align 4
  br label %48

47:                                               ; preds = %2
  br label %49

48:                                               ; preds = %2, %38, %28, %18, %8
  br label %49

49:                                               ; preds = %48, %47
  ret void
}