; Function Attrs: mustprogress nofree norecurse nosync nounwind willreturn memory(readwrite, inaccessiblemem: none) uwtable
define void @_ZN4LIEF5MachO15RelocationFixup4nextEj(ptr noundef nonnull readonly align 8 captures(none) dereferenceable(88) %0, i32 noundef %1) local_unnamed_addr #8 align 2 {
  %3 = getelementptr inbounds nuw i8, ptr %0, i64 76
  %4 = load i32, ptr %3, align 4, !tbaa !6
  switch i32 %4, label %40 [
    i32 1, label %5
    i32 2, label %14
    i32 3, label %23
    i32 4, label %32
  ]

5:                                                ; preds = %2
  %6 = getelementptr inbounds nuw i8, ptr %0, i64 80
  %7 = load ptr, ptr %6, align 8, !tbaa !21
  %8 = load i64, ptr %7, align 8
  %9 = and i32 %1, 2047
  %10 = zext nneg i32 %9 to i64
  %11 = shl nuw nsw i64 %10, 51
  %12 = and i64 %8, -4609434218613702657
  %13 = or disjoint i64 %12, %11
  store i64 %13, ptr %7, align 8
  br label %40

14:                                               ; preds = %2
  %15 = getelementptr inbounds nuw i8, ptr %0, i64 80
  %16 = load ptr, ptr %15, align 8, !tbaa !21
  %17 = load i64, ptr %16, align 8
  %18 = and i32 %1, 2047
  %19 = zext nneg i32 %18 to i64
  %20 = shl nuw nsw i64 %19, 51
  %21 = and i64 %17, -4609434218613702657
  %22 = or disjoint i64 %21, %20
  store i64 %22, ptr %16, align 8
  br label %40

23:                                               ; preds = %2
  %24 = getelementptr inbounds nuw i8, ptr %0, i64 80
  %25 = load ptr, ptr %24, align 8, !tbaa !21
  %26 = load i64, ptr %25, align 8
  %27 = and i32 %1, 4095
  %28 = zext nneg i32 %27 to i64
  %29 = shl nuw nsw i64 %28, 51
  %30 = and i64 %26, -9221120237041090561
  %31 = or disjoint i64 %30, %29
  store i64 %31, ptr %25, align 8
  br label %40

32:                                               ; preds = %2
  %33 = getelementptr inbounds nuw i8, ptr %0, i64 80
  %34 = load ptr, ptr %33, align 8, !tbaa !21
  %35 = load i32, ptr %34, align 4
  %36 = shl i32 %1, 26
  %37 = and i32 %36, 2080374784
  %38 = and i32 %35, -2080374785
  %39 = or disjoint i32 %38, %37
  store i32 %39, ptr %34, align 4
  br label %40

40:                                               ; preds = %2, %5, %14, %23, %32
  ret void
}